target datalayout = "e-m:e-p270:32:32-p271:32:32-p272:64:64-i64:64-i128:128-f80:128-n8:16:32:64-S128"
target triple = "x86_64-pc-linux-gnu"

; Function Attrs: inlinehint nounwind uwtable
define internal i64 @mbedtls_ct_bool_and(i64 noundef %0, i64 noundef %1) #3 {
  %3 = alloca i64, align 8
  %4 = alloca i64, align 8
  store i64 %0, ptr %3, align 8, !tbaa !3
  store i64 %1, ptr %4, align 8, !tbaa !3
  %5 = load i64, ptr %3, align 8, !tbaa !3
  %6 = load i64, ptr %4, align 8, !tbaa !3
  %7 = and i64 %5, %6
  ret i64 %7
}

; Function Attrs: inlinehint nounwind uwtable
define internal i64 @mbedtls_ct_bool_not(i64 noundef %0) #3 {
  %2 = alloca i64, align 8
  store i64 %0, ptr %2, align 8, !tbaa !3
  %3 = load i64, ptr %2, align 8, !tbaa !3
  %4 = xor i64 %3, -1
  ret i64 %4
}

; Function Attrs: inlinehint nounwind uwtable
define internal i64 @mbedtls_ct_bool_or(i64 noundef %0, i64 noundef %1) #3 {
  %3 = alloca i64, align 8
  %4 = alloca i64, align 8
  store i64 %0, ptr %3, align 8, !tbaa !3
  store i64 %1, ptr %4, align 8, !tbaa !3
  %5 = load i64, ptr %3, align 8, !tbaa !3
  %6 = load i64, ptr %4, align 8, !tbaa !3
  %7 = or i64 %5, %6
  ret i64 %7
}

; Function Attrs: inlinehint nounwind uwtable
define internal i64 @mbedtls_ct_uint_lt(i64 noundef %0, i64 noundef %1) #3 {
  %3 = alloca i64, align 8
  %4 = alloca i64, align 8
  %5 = alloca i64, align 8
  store i64 %0, ptr %3, align 8, !tbaa !3
  store i64 %1, ptr %4, align 8, !tbaa !3
  call void @llvm.lifetime.start.p0(i64 8, ptr %5) #7
  %6 = load i64, ptr %3, align 8, !tbaa !3
  %7 = load i64, ptr %4, align 8, !tbaa !3
  %8 = call { i64, i64, i64 } asm sideeffect "mov $1, $0                                 \0A\09xor $2, $0                                 \0A\09sub $2, $1                                 \0A\09and $0, $2                                 \0A\09not $0                                       \0A\09and $0, $1                                 \0A\09or $2, $1                                  \0A\09sar $$63, $1                                  \0A\09", "=&{ax},=&{di},=&{si},1,2,~{dirflag},~{fpsr},~{flags}"(i64 %6, i64 %7) #7, !srcloc !19
  %9 = extractvalue { i64, i64, i64 } %8, 0
  %10 = extractvalue { i64, i64, i64 } %8, 1
  %11 = extractvalue { i64, i64, i64 } %8, 2
  store i64 %9, ptr %5, align 8, !tbaa !3
  store i64 %10, ptr %3, align 8, !tbaa !3
  store i64 %11, ptr %4, align 8, !tbaa !3
  %12 = load i64, ptr %3, align 8, !tbaa !3
  call void @llvm.lifetime.end.p0(i64 8, ptr %5) #7
  ret i64 %12
}

; Function Attrs: inlinehint nounwind uwtable
define internal i64 @mbedtls_ct_compiler_opaque(i64 noundef %0) #3 {
  %2 = alloca i64, align 8
  store i64 %0, ptr %2, align 8, !tbaa !3
  %3 = load i64, ptr %2, align 8, !tbaa !3
  %4 = call i64 asm sideeffect "", "=r,0,~{dirflag},~{fpsr},~{flags}"(i64 %3) #7, !srcloc !16
  store i64 %4, ptr %2, align 8, !tbaa !3
  %5 = load i64, ptr %2, align 8, !tbaa !3
  ret i64 %5
}

; Function Attrs: nounwind uwtable
define hidden i64 @mbedtls_mpi_core_lt_ct(ptr noundef %0, ptr noundef %1, i64 noundef %2) #0 {
  %4 = alloca ptr, align 8
  %5 = alloca ptr, align 8
  %6 = alloca i64, align 8
  %7 = alloca i64, align 8
  %8 = alloca i64, align 8
  %9 = alloca i64, align 8
  %10 = alloca i64, align 8
  store ptr %0, ptr %4, align 8, !tbaa !7
  store ptr %1, ptr %5, align 8, !tbaa !7
  store i64 %2, ptr %6, align 8, !tbaa !3
  call void @llvm.lifetime.start.p0(i64 8, ptr %7) #7
  %11 = call i64 @mbedtls_ct_compiler_opaque(i64 noundef 0)
  store i64 %11, ptr %7, align 8, !tbaa !3
  call void @llvm.lifetime.start.p0(i64 8, ptr %8) #7
  %12 = call i64 @mbedtls_ct_compiler_opaque(i64 noundef 0)
  store i64 %12, ptr %8, align 8, !tbaa !3
  call void @llvm.lifetime.start.p0(i64 8, ptr %9) #7
  %13 = call i64 @mbedtls_ct_compiler_opaque(i64 noundef 0)
  store i64 %13, ptr %9, align 8, !tbaa !3
  call void @llvm.lifetime.start.p0(i64 8, ptr %10) #7
  %14 = load i64, ptr %6, align 8, !tbaa !3
  store i64 %14, ptr %10, align 8, !tbaa !3
  br label %15

15:                                               ; preds = %54, %3
  %16 = load i64, ptr %10, align 8, !tbaa !3
  %17 = icmp ugt i64 %16, 0
  br i1 %17, label %19, label %18

18:                                               ; preds = %15
  call void @llvm.lifetime.end.p0(i64 8, ptr %10) #7
  br label %57

19:                                               ; preds = %15
  %20 = load ptr, ptr %5, align 8, !tbaa !7
  %21 = load i64, ptr %10, align 8, !tbaa !3
  %22 = sub i64 %21, 1
  %23 = getelementptr inbounds nuw i64, ptr %20, i64 %22
  %24 = load i64, ptr %23, align 8, !tbaa !3
  %25 = load ptr, ptr %4, align 8, !tbaa !7
  %26 = load i64, ptr %10, align 8, !tbaa !3
  %27 = sub i64 %26, 1
  %28 = getelementptr inbounds nuw i64, ptr %25, i64 %27
  %29 = load i64, ptr %28, align 8, !tbaa !3
  %30 = call i64 @mbedtls_ct_uint_lt(i64 noundef %24, i64 noundef %29)
  store i64 %30, ptr %8, align 8, !tbaa !3
  %31 = load i64, ptr %9, align 8, !tbaa !3
  %32 = load i64, ptr %8, align 8, !tbaa !3
  %33 = call i64 @mbedtls_ct_bool_or(i64 noundef %31, i64 noundef %32)
  store i64 %33, ptr %9, align 8, !tbaa !3
  %34 = load ptr, ptr %4, align 8, !tbaa !7
  %35 = load i64, ptr %10, align 8, !tbaa !3
  %36 = sub i64 %35, 1
  %37 = getelementptr inbounds nuw i64, ptr %34, i64 %36
  %38 = load i64, ptr %37, align 8, !tbaa !3
  %39 = load ptr, ptr %5, align 8, !tbaa !7
  %40 = load i64, ptr %10, align 8, !tbaa !3
  %41 = sub i64 %40, 1
  %42 = getelementptr inbounds nuw i64, ptr %39, i64 %41
  %43 = load i64, ptr %42, align 8, !tbaa !3
  %44 = call i64 @mbedtls_ct_uint_lt(i64 noundef %38, i64 noundef %43)
  store i64 %44, ptr %8, align 8, !tbaa !3
  %45 = load i64, ptr %7, align 8, !tbaa !3
  %46 = load i64, ptr %8, align 8, !tbaa !3
  %47 = load i64, ptr %9, align 8, !tbaa !3
  %48 = call i64 @mbedtls_ct_bool_not(i64 noundef %47)
  %49 = call i64 @mbedtls_ct_bool_and(i64 noundef %46, i64 noundef %48)
  %50 = call i64 @mbedtls_ct_bool_or(i64 noundef %45, i64 noundef %49)
  store i64 %50, ptr %7, align 8, !tbaa !3
  %51 = load i64, ptr %9, align 8, !tbaa !3
  %52 = load i64, ptr %8, align 8, !tbaa !3
  %53 = call i64 @mbedtls_ct_bool_or(i64 noundef %51, i64 noundef %52)
  store i64 %53, ptr %9, align 8, !tbaa !3
  br label %54

54:                                               ; preds = %19
  %55 = load i64, ptr %10, align 8, !tbaa !3
  %56 = add i64 %55, -1
  store i64 %56, ptr %10, align 8, !tbaa !3
  br label %15, !llvm.loop !18

57:                                               ; preds = %18
  %58 = load i64, ptr %7, align 8, !tbaa !3
  call void @llvm.lifetime.end.p0(i64 8, ptr %9) #7
  call void @llvm.lifetime.end.p0(i64 8, ptr %8) #7
  call void @llvm.lifetime.end.p0(i64 8, ptr %7) #7
  ret i64 %58
}