; Function Attrs: nounwind uwtable
define hidden i64 @mbedtls_mpi_core_lt_ct(ptr noundef readonly captures(none) %0, ptr noundef readonly captures(none) %1, i64 noundef %2) local_unnamed_addr #5 {
  %4 = tail call i64 asm sideeffect "", "=r,0,~{dirflag},~{fpsr},~{flags}"(i64 0) #10, !srcloc !11
  %5 = tail call i64 asm sideeffect "", "=r,0,~{dirflag},~{fpsr},~{flags}"(i64 0) #10, !srcloc !11
  %6 = tail call i64 asm sideeffect "", "=r,0,~{dirflag},~{fpsr},~{flags}"(i64 0) #10, !srcloc !11
  %.not20 = icmp eq i64 %2, 0
  br i1 %.not20, label %._crit_edge, label %.lr.ph

._crit_edge:                                      ; preds = %.lr.ph, %3
  %.019.lcssa = phi i64 [ %4, %3 ], [ %21, %.lr.ph ]
  ret i64 %.019.lcssa

.lr.ph:                                           ; preds = %3, %.lr.ph
  %.023 = phi i64 [ %7, %.lr.ph ], [ %2, %3 ]
  %.01822 = phi i64 [ %22, %.lr.ph ], [ %6, %3 ]
  %.01921 = phi i64 [ %21, %.lr.ph ], [ %4, %3 ]
  %7 = add i64 %.023, -1
  %8 = getelementptr inbounds nuw i64, ptr %1, i64 %7
  %9 = load i64, ptr %8, align 8, !tbaa !3
  %10 = getelementptr inbounds nuw i64, ptr %0, i64 %7
  %11 = load i64, ptr %10, align 8, !tbaa !3
  %12 = tail call { i64, i64, i64 } asm sideeffect "mov $1, $0                                 \0A\09xor $2, $0                                 \0A\09sub $2, $1                                 \0A\09and $0, $2                                 \0A\09not $0                                       \0A\09and $0, $1                                 \0A\09or $2, $1                                  \0A\09sar $$63, $1                                  \0A\09", "=&{ax},=&{di},=&{si},1,2,~{dirflag},~{fpsr},~{flags}"(i64 %9, i64 %11) #10, !srcloc !10
  %13 = extractvalue { i64, i64, i64 } %12, 1
  %14 = or i64 %13, %.01822
  %15 = load i64, ptr %10, align 8, !tbaa !3
  %16 = load i64, ptr %8, align 8, !tbaa !3
  %17 = tail call { i64, i64, i64 } asm sideeffect "mov $1, $0                                 \0A\09xor $2, $0                                 \0A\09sub $2, $1                                 \0A\09and $0, $2                                 \0A\09not $0                                       \0A\09and $0, $1                                 \0A\09or $2, $1                                  \0A\09sar $$63, $1                                  \0A\09", "=&{ax},=&{di},=&{si},1,2,~{dirflag},~{fpsr},~{flags}"(i64 %15, i64 %16) #10, !srcloc !10
  %18 = extractvalue { i64, i64, i64 } %17, 1
  %19 = xor i64 %14, -1
  %20 = and i64 %18, %19
  %21 = or i64 %20, %.01921
  %22 = or i64 %18, %14
  %.not = icmp eq i64 %7, 0
  br i1 %.not, label %._crit_edge, label %.lr.ph, !llvm.loop !14
}